target datalayout = "e-m:e-p270:32:32-p271:32:32-p272:64:64-i64:64-i128:128-f80:128-n8:16:32:64-S128"
target triple = "x86_64-pc-linux-gnu"

%class.b3PrefixScanFloat4CL = type { ptr, ptr, ptr, ptr, ptr, ptr }

@_ZTV20b3PrefixScanFloat4CL = dso_local unnamed_addr constant { [4 x ptr] } { [4 x ptr] [ptr null, ptr @_ZTI20b3PrefixScanFloat4CL, ptr @_ZN20b3PrefixScanFloat4CLD1Ev, ptr @_ZN20b3PrefixScanFloat4CLD0Ev] }, align 8
@__clewReleaseKernel = external global ptr, align 8

; Function Attrs: mustprogress nounwind uwtable
define dso_local void @_ZN20b3PrefixScanFloat4CLD2Ev(ptr noundef nonnull align 8 dereferenceable(48) %0) unnamed_addr #5 align 2 personality ptr @__gxx_personality_v0 {
  %2 = alloca ptr, align 8
  store ptr %0, ptr %2, align 8, !tbaa !4
  %3 = load ptr, ptr %2, align 8
  store ptr getelementptr inbounds inrange(-16, 16) ({ [4 x ptr] }, ptr @_ZTV20b3PrefixScanFloat4CL, i32 0, i32 0, i32 2), ptr %3, align 8, !tbaa !17
  %4 = getelementptr inbounds nuw %class.b3PrefixScanFloat4CL, ptr %3, i32 0, i32 5
  %5 = load ptr, ptr %4, align 8, !tbaa !25
  %6 = icmp eq ptr %5, null
  br i1 %6, label %11, label %7

7:                                                ; preds = %1
  %8 = load ptr, ptr %5, align 8, !tbaa !17
  %9 = getelementptr inbounds ptr, ptr %8, i64 1
  %10 = load ptr, ptr %9, align 8
  call void %10(ptr noundef nonnull align 8 dereferenceable(50) %5) #12
  br label %11

11:                                               ; preds = %7, %1
  %12 = load ptr, ptr @__clewReleaseKernel, align 8, !tbaa !49
  %13 = getelementptr inbounds nuw %class.b3PrefixScanFloat4CL, ptr %3, i32 0, i32 2
  %14 = load ptr, ptr %13, align 8, !tbaa !28
  %15 = invoke i32 %12(ptr noundef %14)
          to label %16 unwind label %27

16:                                               ; preds = %11
  %17 = load ptr, ptr @__clewReleaseKernel, align 8, !tbaa !49
  %18 = getelementptr inbounds nuw %class.b3PrefixScanFloat4CL, ptr %3, i32 0, i32 3
  %19 = load ptr, ptr %18, align 8, !tbaa !29
  %20 = invoke i32 %17(ptr noundef %19)
          to label %21 unwind label %27

21:                                               ; preds = %16
  %22 = load ptr, ptr @__clewReleaseKernel, align 8, !tbaa !49
  %23 = getelementptr inbounds nuw %class.b3PrefixScanFloat4CL, ptr %3, i32 0, i32 4
  %24 = load ptr, ptr %23, align 8, !tbaa !30
  %25 = invoke i32 %22(ptr noundef %24)
          to label %26 unwind label %27

26:                                               ; preds = %21
  ret void

27:                                               ; preds = %21, %16, %11
  %28 = landingpad { ptr, i32 }
          catch ptr null
  %29 = extractvalue { ptr, i32 } %28, 0
  call void @__clang_call_terminate(ptr %29) #15
  unreachable
}