; Function Attrs: mustprogress nounwind uwtable
define dso_local void @_ZN20b3PrefixScanFloat4CLD2Ev(ptr noundef nonnull align 8 captures(none) dereferenceable(48) initializes((0, 8)) %0) unnamed_addr #4 align 2 personality ptr @__gxx_personality_v0 {
  store ptr getelementptr inbounds nuw inrange(-16, 16) (i8, ptr @_ZTV20b3PrefixScanFloat4CL, i64 16), ptr %0, align 8, !tbaa !4
  %2 = getelementptr inbounds nuw i8, ptr %0, i64 40
  %3 = load ptr, ptr %2, align 8, !tbaa !14
  %4 = icmp eq ptr %3, null
  br i1 %4, label %9, label %5

5:                                                ; preds = %1
  %6 = load ptr, ptr %3, align 8, !tbaa !4
  %7 = getelementptr inbounds nuw i8, ptr %6, i64 8
  %8 = load ptr, ptr %7, align 8
  tail call void %8(ptr noundef nonnull align 8 dereferenceable(50) %3) #15
  br label %9

9:                                                ; preds = %5, %1
  %10 = load ptr, ptr @__clewReleaseKernel, align 8, !tbaa !27
  %11 = getelementptr inbounds nuw i8, ptr %0, i64 16
  %12 = load ptr, ptr %11, align 8, !tbaa !15
  %13 = invoke i32 %10(ptr noundef %12)
          to label %14 unwind label %25

14:                                               ; preds = %9
  %15 = load ptr, ptr @__clewReleaseKernel, align 8, !tbaa !27
  %16 = getelementptr inbounds nuw i8, ptr %0, i64 24
  %17 = load ptr, ptr %16, align 8, !tbaa !16
  %18 = invoke i32 %15(ptr noundef %17)
          to label %19 unwind label %25

19:                                               ; preds = %14
  %20 = load ptr, ptr @__clewReleaseKernel, align 8, !tbaa !27
  %21 = getelementptr inbounds nuw i8, ptr %0, i64 32
  %22 = load ptr, ptr %21, align 8, !tbaa !17
  %23 = invoke i32 %20(ptr noundef %22)
          to label %24 unwind label %25

24:                                               ; preds = %19
  ret void

25:                                               ; preds = %19, %14, %9
  %26 = landingpad { ptr, i32 }
          catch ptr null
  %27 = extractvalue { ptr, i32 } %26, 0
  tail call void @__clang_call_terminate(ptr %27) #18
  unreachable
}